; Function Attrs: mustprogress nofree norecurse nosync nounwind memory(readwrite, inaccessiblemem: none) uwtable
define noundef signext i8 @_ZN6icu_759UVector329retainAllERKS0_(ptr nocapture noundef nonnull align 8 dereferenceable(32) %this, ptr nocapture noundef nonnull readonly align 8 dereferenceable(32) %other) local_unnamed_addr #9 align 2 {
entry:
  %count.i = getelementptr inbounds i8, ptr %this, i64 8
  %0 = load i32, ptr %count.i, align 8
  %cmp18 = icmp sgt i32 %0, 0
  br i1 %cmp18, label %for.body.lr.ph, label %for.end

for.body.lr.ph:                                   ; preds = %entry
  %elements = getelementptr inbounds i8, ptr %this, i64 24
  %count.i4 = getelementptr inbounds i8, ptr %other, i64 8
  %elements.i = getelementptr inbounds i8, ptr %other, i64 24
  %1 = zext nneg i32 %0 to i64
  br label %for.body

for.body:                                         ; preds = %for.body.lr.ph, %for.inc
  %2 = phi i32 [ %0, %for.body.lr.ph ], [ %15, %for.inc ]
  %indvars.iv = phi i64 [ %1, %for.body.lr.ph ], [ %indvars.iv.next, %for.inc ]
  %changed.020 = phi i8 [ 0, %for.body.lr.ph ], [ %changed.1, %for.inc ]
  %indvars.iv.next = add nsw i64 %indvars.iv, -1
  %3 = load ptr, ptr %elements, align 8
  %arrayidx = getelementptr inbounds i32, ptr %3, i64 %indvars.iv.next
  %4 = load i32, ptr %arrayidx, align 4
  %5 = load i32, ptr %count.i4, align 8
  %cmp4.i = icmp sgt i32 %5, 0
  br i1 %cmp4.i, label %for.body.lr.ph.i, label %for.cond.preheader.i

for.body.lr.ph.i:                                 ; preds = %for.body
  %6 = load ptr, ptr %elements.i, align 8
  %zext = zext nneg i32 %5 to i64
  br label %for.body.i

for.body.i:                                       ; preds = %for.inc.i, %for.body.lr.ph.i
  %indvars.iv.i = phi i64 [ 0, %for.body.lr.ph.i ], [ %indvars.iv.next.i, %for.inc.i ]
  %arrayidx.i = getelementptr inbounds i32, ptr %6, i64 %indvars.iv.i
  %7 = load i32, ptr %arrayidx.i, align 4
  %cmp2.i = icmp eq i32 %7, %4
  br i1 %cmp2.i, label %_ZNK6icu_759UVector327indexOfEii.exit, label %for.inc.i

for.inc.i:                                        ; preds = %for.body.i
  %indvars.iv.next.i = add nuw nsw i64 %indvars.iv.i, 1
  %8 = icmp eq i64 %indvars.iv.next.i, %zext
  br i1 %8, label %for.cond.preheader.i, label %for.body.i, !llvm.loop !10

_ZNK6icu_759UVector327indexOfEii.exit:            ; preds = %for.body.i
  %9 = and i64 %indvars.iv.i, 2147483648
  %cmp3.not = icmp eq i64 %9, 0
  br i1 %cmp3.not, label %for.inc, label %for.cond.preheader.i

for.cond.preheader.i:                             ; preds = %for.inc.i, %_ZNK6icu_759UVector327indexOfEii.exit, %for.body
  %sub5.i = add nsw i32 %2, -1
  %10 = sext i32 %2 to i64
  %cmp26.i = icmp slt i64 %indvars.iv, %10
  br i1 %cmp26.i, label %for.body.i8, label %for.end.i

for.body.i8:                                      ; preds = %for.cond.preheader.i, %for.body.i8
  %indvars.iv.i9 = phi i64 [ %indvars.iv.next.i10, %for.body.i8 ], [ %indvars.iv.next, %for.cond.preheader.i ]
  %11 = load ptr, ptr %elements, align 8
  %indvars.iv.next.i10 = add nuw nsw i64 %indvars.iv.i9, 1
  %arrayidx.i11 = getelementptr inbounds i32, ptr %11, i64 %indvars.iv.next.i10
  %12 = load i32, ptr %arrayidx.i11, align 4
  %arrayidx5.i = getelementptr inbounds i32, ptr %11, i64 %indvars.iv.i9
  store i32 %12, ptr %arrayidx5.i, align 4
  %13 = load i32, ptr %count.i, align 8
  %sub.i = add nsw i32 %13, -1
  %14 = trunc i64 %indvars.iv.next.i10 to i32
  %cmp2.i12 = icmp sgt i32 %sub.i, %14
  br i1 %cmp2.i12, label %for.body.i8, label %for.end.i, !llvm.loop !12

for.end.i:                                        ; preds = %for.body.i8, %for.cond.preheader.i
  %sub.lcssa.i = phi i32 [ %sub5.i, %for.cond.preheader.i ], [ %sub.i, %for.body.i8 ]
  store i32 %sub.lcssa.i, ptr %count.i, align 8
  br label %for.inc

for.inc:                                          ; preds = %for.end.i, %_ZNK6icu_759UVector327indexOfEii.exit
  %15 = phi i32 [ %2, %_ZNK6icu_759UVector327indexOfEii.exit ], [ %sub.lcssa.i, %for.end.i ]
  %changed.1 = phi i8 [ %changed.020, %_ZNK6icu_759UVector327indexOfEii.exit ], [ 1, %for.end.i ]
  %cmp = icmp sgt i64 %indvars.iv, 1
  br i1 %cmp, label %for.body, label %for.end, !llvm.loop !15

for.end:                                          ; preds = %for.inc, %entry
  %changed.0.lcssa = phi i8 [ 0, %entry ], [ %changed.1, %for.inc ]
  ret i8 %changed.0.lcssa
}